; Function Attrs: mustprogress nofree norecurse nosync nounwind memory(write, argmem: readwrite, inaccessiblemem: none) uwtable
define internal void @_ZN12_GLOBAL__N_114HostBufferImpl9alignmentERKN3ade4util9DynMdSpanILm6EEE(ptr dead_on_unwind noalias writable writeonly sret(%"struct.ade::util::DynMdSize") align 8 %0, ptr nocapture nonnull readnone align 8 %1, ptr nocapture noundef nonnull readonly align 8 dereferenceable(56) %2) unnamed_addr #13 align 2 {
  %4 = getelementptr inbounds i8, ptr %0, i64 24
  %5 = getelementptr inbounds i8, ptr %2, i64 48
  %6 = load i64, ptr %5, align 8
  store i64 %6, ptr %4, align 8
  %7 = getelementptr inbounds i32, ptr %0, i64 %6
  %.not5.i.i.i.i = icmp eq i64 %6, 0
  br i1 %.not5.i.i.i.i, label %_ZN3ade4util4fillIRNS0_9DynMdSizeILm6EEEiEEvOT_OT0_.exit, label %.lr.ph.i.i.i.i

.lr.ph.i.i.i.i:                                   ; preds = %3, %.lr.ph.i.i.i.i
  %.06.i.i.i.i = phi ptr [ %8, %.lr.ph.i.i.i.i ], [ %0, %3 ]
  store i32 1, ptr %.06.i.i.i.i, align 4
  %8 = getelementptr inbounds i8, ptr %.06.i.i.i.i, i64 4
  %.not.i.i.i.i = icmp eq ptr %8, %7
  br i1 %.not.i.i.i.i, label %_ZN3ade4util4fillIRNS0_9DynMdSizeILm6EEEiEEvOT_OT0_.exit, label %.lr.ph.i.i.i.i, !llvm.loop !160

_ZN3ade4util4fillIRNS0_9DynMdSizeILm6EEEiEEvOT_OT0_.exit: ; preds = %.lr.ph.i.i.i.i, %3
  ret void
}